target datalayout = "e-m:e-p270:32:32-p271:32:32-p272:64:64-i64:64-i128:128-f80:128-n8:16:32:64-S128"
target triple = "x86_64-pc-linux-gnu"

%struct._typeobject = type { %struct.PyVarObject, ptr, i64, i64, ptr, i64, ptr, ptr, ptr, ptr, ptr, ptr, ptr, ptr, ptr, ptr, ptr, ptr, ptr, i64, ptr, ptr, ptr, ptr, i64, ptr, ptr, ptr, ptr, ptr, ptr, ptr, ptr, ptr, i64, ptr, ptr, ptr, ptr, ptr, ptr, ptr, ptr, ptr, ptr, ptr, i32, ptr, ptr, i8, i16 }
%struct.PyVarObject = type { %struct._object, i64 }
%struct._object = type { %union.anon, ptr }
%union.anon = type { i64 }
%struct.PyTupleObject = type { %struct.PyVarObject, [1 x ptr] }
%struct.anon = type { i32, i32 }

@.str = private unnamed_addr constant [33 x i8] c"../cpython/Objects/tupleobject.c\00", align 1
@PyExc_IndexError = external global ptr, align 8
@.str.2 = private unnamed_addr constant [36 x i8] c"tuple assignment index out of range\00", align 1

; Function Attrs: alwaysinline nounwind uwtable
define internal i32 @_Py_IsImmortal(ptr noundef %0) #5 {
  %2 = alloca ptr, align 8
  store ptr %0, ptr %2, align 8, !tbaa !10
  %3 = load ptr, ptr %2, align 8, !tbaa !10
  %4 = getelementptr inbounds nuw %struct._object, ptr %3, i32 0, i32 0
  %5 = getelementptr inbounds nuw %struct.anon, ptr %4, i32 0, i32 0
  %6 = load i32, ptr %5, align 8, !tbaa !110
  %7 = icmp slt i32 %6, 0
  %8 = zext i1 %7 to i32
  ret i32 %8
}

; Function Attrs: alwaysinline nounwind uwtable
define internal void @Py_DECREF(ptr noundef %0) #5 {
  %2 = alloca ptr, align 8
  store ptr %0, ptr %2, align 8, !tbaa !10
  %3 = load ptr, ptr %2, align 8, !tbaa !10
  %4 = call i32 @_Py_IsImmortal(ptr noundef %3)
  %5 = icmp ne i32 %4, 0
  br i1 %5, label %6, label %7

6:                                                ; preds = %1
  br label %16

7:                                                ; preds = %1
  %8 = load ptr, ptr %2, align 8, !tbaa !10
  %9 = getelementptr inbounds nuw %struct._object, ptr %8, i32 0, i32 0
  %10 = getelementptr inbounds nuw %struct.anon, ptr %9, i32 0, i32 0
  %11 = load i32, ptr %10, align 8, !tbaa !110
  %12 = add i32 %11, -1
  store i32 %12, ptr %10, align 8, !tbaa !110
  %13 = icmp eq i32 %12, 0
  br i1 %13, label %14, label %16

14:                                               ; preds = %7
  %15 = load ptr, ptr %2, align 8, !tbaa !10
  call void @_Py_Dealloc(ptr noundef %15)
  br label %16

16:                                               ; preds = %6, %14, %7
  ret void
}

; Function Attrs: inlinehint nounwind uwtable
define internal i64 @Py_SIZE(ptr noundef %0) #2 {
  %2 = alloca ptr, align 8
  store ptr %0, ptr %2, align 8, !tbaa !10
  %3 = load ptr, ptr %2, align 8, !tbaa !10
  %4 = getelementptr inbounds nuw %struct.PyVarObject, ptr %3, i32 0, i32 1
  %5 = load i64, ptr %4, align 8, !tbaa !108
  ret i64 %5
}

; Function Attrs: inlinehint nounwind uwtable
define internal void @Py_XDECREF(ptr noundef %0) #2 {
  %2 = alloca ptr, align 8
  store ptr %0, ptr %2, align 8, !tbaa !10
  %3 = load ptr, ptr %2, align 8, !tbaa !10
  %4 = icmp ne ptr %3, null
  br i1 %4, label %5, label %7

5:                                                ; preds = %1
  %6 = load ptr, ptr %2, align 8, !tbaa !10
  call void @Py_DECREF(ptr noundef %6)
  br label %7

7:                                                ; preds = %5, %1
  ret void
}

; Function Attrs: inlinehint nounwind uwtable
define internal i64 @_Py_REFCNT(ptr noundef %0) #2 {
  %2 = alloca ptr, align 8
  store ptr %0, ptr %2, align 8, !tbaa !10
  %3 = load ptr, ptr %2, align 8, !tbaa !10
  %4 = getelementptr inbounds nuw %struct._object, ptr %3, i32 0, i32 0
  %5 = getelementptr inbounds nuw %struct.anon, ptr %4, i32 0, i32 0
  %6 = load i32, ptr %5, align 8, !tbaa !110
  %7 = zext i32 %6 to i64
  ret i64 %7
}

; Function Attrs: inlinehint nounwind uwtable
define internal i32 @PyType_HasFeature(ptr noundef %0, i64 noundef %1) #2 {
  %3 = alloca ptr, align 8
  %4 = alloca i64, align 8
  %5 = alloca i64, align 8
  store ptr %0, ptr %3, align 8, !tbaa !99
  store i64 %1, ptr %4, align 8, !tbaa !4
  call void @llvm.lifetime.start.p0(i64 8, ptr %5) #9
  %6 = load ptr, ptr %3, align 8, !tbaa !99
  %7 = getelementptr inbounds nuw %struct._typeobject, ptr %6, i32 0, i32 19
  %8 = load i64, ptr %7, align 8, !tbaa !100
  store i64 %8, ptr %5, align 8, !tbaa !4
  %9 = load i64, ptr %5, align 8, !tbaa !4
  %10 = load i64, ptr %4, align 8, !tbaa !4
  %11 = and i64 %9, %10
  %12 = icmp ne i64 %11, 0
  %13 = zext i1 %12 to i32
  call void @llvm.lifetime.end.p0(i64 8, ptr %5) #9
  ret i32 %13
}

; Function Attrs: inlinehint nounwind uwtable
define internal ptr @_Py_TYPE(ptr noundef %0) #2 {
  %2 = alloca ptr, align 8
  store ptr %0, ptr %2, align 8, !tbaa !10
  %3 = load ptr, ptr %2, align 8, !tbaa !10
  %4 = getelementptr inbounds nuw %struct._object, ptr %3, i32 0, i32 1
  %5 = load ptr, ptr %4, align 8, !tbaa !107
  ret ptr %5
}

; Function Attrs: nounwind uwtable
define dso_local i32 @PyTuple_SetItem(ptr noundef %0, i64 noundef %1, ptr noundef %2) #0 {
  %4 = alloca i32, align 4
  %5 = alloca ptr, align 8
  %6 = alloca i64, align 8
  %7 = alloca ptr, align 8
  %8 = alloca ptr, align 8
  %9 = alloca i32, align 4
  %10 = alloca ptr, align 8
  %11 = alloca ptr, align 8
  store ptr %0, ptr %5, align 8, !tbaa !10
  store i64 %1, ptr %6, align 8, !tbaa !4
  store ptr %2, ptr %7, align 8, !tbaa !10
  call void @llvm.lifetime.start.p0(i64 8, ptr %8) #9
  %12 = load ptr, ptr %5, align 8, !tbaa !10
  %13 = call ptr @_Py_TYPE(ptr noundef %12)
  %14 = call i32 @PyType_HasFeature(ptr noundef %13, i64 noundef 67108864)
  %15 = icmp ne i32 %14, 0
  br i1 %15, label %16, label %20

16:                                               ; preds = %3
  %17 = load ptr, ptr %5, align 8, !tbaa !10
  %18 = call i64 @_Py_REFCNT(ptr noundef %17)
  %19 = icmp ne i64 %18, 1
  br i1 %19, label %20, label %22

20:                                               ; preds = %16, %3
  %21 = load ptr, ptr %7, align 8, !tbaa !10
  call void @Py_XDECREF(ptr noundef %21)
  call void @_PyErr_BadInternalCall(ptr noundef @.str, i32 noundef 116)
  store i32 -1, ptr %4, align 4
  store i32 1, ptr %9, align 4
  br label %48

22:                                               ; preds = %16
  %23 = load i64, ptr %6, align 8, !tbaa !4
  %24 = icmp slt i64 %23, 0
  br i1 %24, label %30, label %25

25:                                               ; preds = %22
  %26 = load i64, ptr %6, align 8, !tbaa !4
  %27 = load ptr, ptr %5, align 8, !tbaa !10
  %28 = call i64 @Py_SIZE(ptr noundef %27)
  %29 = icmp sge i64 %26, %28
  br i1 %29, label %30, label %33

30:                                               ; preds = %25, %22
  %31 = load ptr, ptr %7, align 8, !tbaa !10
  call void @Py_XDECREF(ptr noundef %31)
  %32 = load ptr, ptr @PyExc_IndexError, align 8, !tbaa !10
  call void @PyErr_SetString(ptr noundef %32, ptr noundef @.str.2)
  store i32 -1, ptr %4, align 4
  store i32 1, ptr %9, align 4
  br label %48

33:                                               ; preds = %25
  %34 = load ptr, ptr %5, align 8, !tbaa !10
  %35 = getelementptr inbounds nuw %struct.PyTupleObject, ptr %34, i32 0, i32 1
  %36 = getelementptr inbounds [1 x ptr], ptr %35, i64 0, i64 0
  %37 = load i64, ptr %6, align 8, !tbaa !4
  %38 = getelementptr ptr, ptr %36, i64 %37
  store ptr %38, ptr %8, align 8, !tbaa !109
  br label %39

39:                                               ; preds = %33
  call void @llvm.lifetime.start.p0(i64 8, ptr %10) #9
  %40 = load ptr, ptr %8, align 8, !tbaa !109
  store ptr %40, ptr %10, align 8, !tbaa !109
  call void @llvm.lifetime.start.p0(i64 8, ptr %11) #9
  %41 = load ptr, ptr %10, align 8, !tbaa !109
  %42 = load ptr, ptr %41, align 8, !tbaa !10
  store ptr %42, ptr %11, align 8, !tbaa !10
  %43 = load ptr, ptr %7, align 8, !tbaa !10
  %44 = load ptr, ptr %10, align 8, !tbaa !109
  store ptr %43, ptr %44, align 8, !tbaa !10
  %45 = load ptr, ptr %11, align 8, !tbaa !10
  call void @Py_XDECREF(ptr noundef %45)
  call void @llvm.lifetime.end.p0(i64 8, ptr %11) #9
  call void @llvm.lifetime.end.p0(i64 8, ptr %10) #9
  br label %46

46:                                               ; preds = %39
  br label %47

47:                                               ; preds = %46
  store i32 0, ptr %4, align 4
  store i32 1, ptr %9, align 4
  br label %48

48:                                               ; preds = %47, %30, %20
  call void @llvm.lifetime.end.p0(i64 8, ptr %8) #9
  %49 = load i32, ptr %4, align 4
  ret i32 %49
}