; Function Attrs: nounwind uwtable
define dso_local range(i32 -1, 1) i32 @PyTuple_SetItem(ptr noundef captures(none) %0, i64 noundef %1, ptr noundef %2) local_unnamed_addr #0 {
  %4 = getelementptr i8, ptr %0, i64 8
  %.val17 = load ptr, ptr %4, align 8, !tbaa !99
  %5 = getelementptr i8, ptr %.val17, i64 168
  %.val18 = load i64, ptr %5, align 8, !tbaa !100
  %6 = and i64 %.val18, 67108864
  %.not = icmp eq i64 %6, 0
  br i1 %.not, label %8, label %7

7:                                                ; preds = %3
  %.val19 = load i32, ptr %0, align 8, !tbaa !108
  %.not15 = icmp eq i32 %.val19, 1
  br i1 %.not15, label %15, label %8

8:                                                ; preds = %7, %3
  %.not.i = icmp eq ptr %2, null
  br i1 %.not.i, label %Py_XDECREF.exit, label %9

9:                                                ; preds = %8
  %10 = load i32, ptr %2, align 8, !tbaa !108
  %.not.i.i = icmp sgt i32 %10, -1
  br i1 %.not.i.i, label %11, label %Py_XDECREF.exit

11:                                               ; preds = %9
  %12 = add nsw i32 %10, -1
  store i32 %12, ptr %2, align 8, !tbaa !108
  %13 = icmp eq i32 %12, 0
  br i1 %13, label %14, label %Py_XDECREF.exit

14:                                               ; preds = %11
  tail call void @_Py_Dealloc(ptr noundef nonnull %2) #9
  br label %Py_XDECREF.exit

Py_XDECREF.exit:                                  ; preds = %8, %9, %11, %14
  tail call void @_PyErr_BadInternalCall(ptr noundef nonnull @.str, i32 noundef 116) #9
  br label %Py_XDECREF.exit25

15:                                               ; preds = %7
  %16 = icmp slt i64 %1, 0
  br i1 %16, label %19, label %17

17:                                               ; preds = %15
  %18 = getelementptr i8, ptr %0, i64 16
  %.val = load i64, ptr %18, align 8, !tbaa !107
  %.not16 = icmp slt i64 %1, %.val
  br i1 %.not16, label %27, label %19

19:                                               ; preds = %17, %15
  %.not.i20 = icmp eq ptr %2, null
  br i1 %.not.i20, label %Py_XDECREF.exit22, label %20

20:                                               ; preds = %19
  %21 = load i32, ptr %2, align 8, !tbaa !108
  %.not.i.i21 = icmp sgt i32 %21, -1
  br i1 %.not.i.i21, label %22, label %Py_XDECREF.exit22

22:                                               ; preds = %20
  %23 = add nsw i32 %21, -1
  store i32 %23, ptr %2, align 8, !tbaa !108
  %24 = icmp eq i32 %23, 0
  br i1 %24, label %25, label %Py_XDECREF.exit22

25:                                               ; preds = %22
  tail call void @_Py_Dealloc(ptr noundef nonnull %2) #9
  br label %Py_XDECREF.exit22

Py_XDECREF.exit22:                                ; preds = %19, %20, %22, %25
  %26 = load ptr, ptr @PyExc_IndexError, align 8, !tbaa !25
  tail call void @PyErr_SetString(ptr noundef %26, ptr noundef nonnull @.str.2) #9
  br label %Py_XDECREF.exit25

27:                                               ; preds = %17
  %28 = getelementptr inbounds nuw i8, ptr %0, i64 24
  %29 = getelementptr ptr, ptr %28, i64 %1
  %30 = load ptr, ptr %29, align 8, !tbaa !25
  store ptr %2, ptr %29, align 8, !tbaa !25
  %.not.i23 = icmp eq ptr %30, null
  br i1 %.not.i23, label %Py_XDECREF.exit25, label %31

31:                                               ; preds = %27
  %32 = load i32, ptr %30, align 8, !tbaa !108
  %.not.i.i24 = icmp sgt i32 %32, -1
  br i1 %.not.i.i24, label %33, label %Py_XDECREF.exit25

33:                                               ; preds = %31
  %34 = add nsw i32 %32, -1
  store i32 %34, ptr %30, align 8, !tbaa !108
  %35 = icmp eq i32 %34, 0
  br i1 %35, label %36, label %Py_XDECREF.exit25

36:                                               ; preds = %33
  tail call void @_Py_Dealloc(ptr noundef nonnull %30) #9
  br label %Py_XDECREF.exit25

Py_XDECREF.exit25:                                ; preds = %36, %33, %31, %27, %Py_XDECREF.exit22, %Py_XDECREF.exit
  %.0 = phi i32 [ -1, %Py_XDECREF.exit ], [ -1, %Py_XDECREF.exit22 ], [ 0, %27 ], [ 0, %31 ], [ 0, %33 ], [ 0, %36 ]
  ret i32 %.0
}